target datalayout = "e-m:e-p270:32:32-p271:32:32-p272:64:64-i64:64-i128:128-f80:128-n8:16:32:64-S128"
target triple = "x86_64-pc-linux-gnu"

%struct.dq_queue_s = type { ptr, ptr }
%struct.tcb_s = type { ptr, ptr, ptr, i32, i8, i8, ptr, %union.entry_u, i8, i8, i8, ptr, i16, i16, i16, %struct.wdog_s, i64, ptr, ptr, ptr, %struct.sigset_s, %struct.sigset_s, %struct.sq_queue_s, %struct.sq_queue_s, %struct.siginfo, ptr, %struct.xcptcontext, [32 x i8] }
%union.entry_u = type { ptr }
%struct.wdog_s = type { ptr, i64, ptr, i64 }
%struct.sigset_s = type { [2 x i32] }
%struct.sq_queue_s = type { ptr, ptr }
%struct.siginfo = type { i8, i8, i8, %union.sigval, i32, i32, ptr }
%union.sigval = type { ptr }
%struct.xcptcontext = type { ptr, i64, i64, i64, [90 x i64] }
%struct.task_tcb_s = type { %struct.tcb_s }
%struct.task_group_s = type { ptr, i32, i32, i8, i8, i8, ptr, ptr, i32, %struct.mutex_s, ptr, ptr, %struct.task_info_s, ptr, %struct.sq_queue_s, %struct.sq_queue_s, %struct.sigset_s, ptr, i64, ptr, %struct.filelist, %struct.mm_map_s }
%struct.mutex_s = type { %struct.sem_s, i32 }
%struct.sem_s = type { i16, i8, %struct.dq_queue_s, ptr }
%struct.task_info_s = type { %struct.mutex_s, ptr, %struct.getopt_s, i32, %struct.streamlist }
%struct.getopt_s = type { ptr, i32, i32, i32, ptr, i8 }
%struct.streamlist = type { %struct.mutex_s, [3 x %struct.file_struct], ptr, ptr }
%struct.file_struct = type { ptr, %struct.rmutex_s, %struct.cookie_io_functions_t, ptr, ptr, ptr, ptr, ptr, [64 x i8], i16, i8, i8, [2 x i8] }
%struct.rmutex_s = type { %struct.mutex_s, i32 }
%struct.cookie_io_functions_t = type { ptr, ptr, ptr, ptr }
%struct.filelist = type { i8, i8, ptr }
%struct.mm_map_s = type { %struct.sq_queue_s, i64, %struct.rmutex_s }

@g_noname = internal constant [9 x i8] c"<noname>\00", align 1

; Function Attrs: nounwind uwtable
define internal i32 @nxtask_setup_stackargs(ptr noundef %0, ptr noundef %1, ptr noundef %2) #0 {
  %4 = alloca i32, align 4
  %5 = alloca ptr, align 8
  %6 = alloca ptr, align 8
  %7 = alloca ptr, align 8
  %8 = alloca ptr, align 8
  %9 = alloca ptr, align 8
  %10 = alloca i64, align 8
  %11 = alloca i64, align 8
  %12 = alloca i32, align 4
  %13 = alloca i32, align 4
  %14 = alloca i32, align 4
  store ptr %0, ptr %5, align 8
  store ptr %1, ptr %6, align 8
  store ptr %2, ptr %7, align 8
  %15 = load ptr, ptr %6, align 8
  %16 = call i64 @strlen(ptr noundef %15) #7
  %17 = add i64 %16, 1
  store i64 %17, ptr %10, align 8
  store i32 0, ptr %13, align 4
  %18 = load ptr, ptr %7, align 8
  %19 = icmp ne ptr %18, null
  br i1 %19, label %20, label %52

20:                                               ; preds = %3
  br label %21

21:                                               ; preds = %50, %20
  %22 = load ptr, ptr %7, align 8
  %23 = load i32, ptr %13, align 4
  %24 = sext i32 %23 to i64
  %25 = getelementptr inbounds ptr, ptr %22, i64 %24
  %26 = load ptr, ptr %25, align 8
  %27 = icmp ne ptr %26, null
  br i1 %27, label %28, label %51

28:                                               ; preds = %21
  %29 = load ptr, ptr %7, align 8
  %30 = load i32, ptr %13, align 4
  %31 = sext i32 %30 to i64
  %32 = getelementptr inbounds ptr, ptr %29, i64 %31
  %33 = load ptr, ptr %32, align 8
  %34 = call i64 @strlen(ptr noundef %33) #7
  %35 = add i64 %34, 1
  %36 = load i64, ptr %10, align 8
  %37 = add i64 %36, %35
  store i64 %37, ptr %10, align 8
  %38 = load i64, ptr %10, align 8
  %39 = load ptr, ptr %5, align 8
  %40 = getelementptr inbounds %struct.task_tcb_s, ptr %39, i32 0, i32 0
  %41 = getelementptr inbounds %struct.tcb_s, ptr %40, i32 0, i32 16
  %42 = load i64, ptr %41, align 8
  %43 = icmp uge i64 %38, %42
  br i1 %43, label %44, label %45

44:                                               ; preds = %28
  store i32 -36, ptr %4, align 4
  br label %141

45:                                               ; preds = %28
  %46 = load i32, ptr %13, align 4
  %47 = add nsw i32 %46, 1
  store i32 %47, ptr %13, align 4
  %48 = icmp sgt i32 %47, 256
  br i1 %48, label %49, label %50

49:                                               ; preds = %45
  store i32 -7, ptr %4, align 4
  br label %141

50:                                               ; preds = %45
  br label %21, !llvm.loop !8

51:                                               ; preds = %21
  br label %52

52:                                               ; preds = %51, %3
  %53 = load i32, ptr %13, align 4
  %54 = add nsw i32 %53, 2
  %55 = sext i32 %54 to i64
  %56 = mul i64 %55, 8
  store i64 %56, ptr %11, align 8
  %57 = load ptr, ptr %5, align 8
  %58 = getelementptr inbounds %struct.task_tcb_s, ptr %57, i32 0, i32 0
  %59 = load i64, ptr %11, align 8
  %60 = load i64, ptr %10, align 8
  %61 = add i64 %59, %60
  %62 = call ptr @up_stack_frame(ptr noundef %58, i64 noundef %61)
  store ptr %62, ptr %8, align 8
  %63 = load ptr, ptr %8, align 8
  %64 = icmp eq ptr %63, null
  br i1 %64, label %65, label %66

65:                                               ; preds = %52
  store i32 -12, ptr %4, align 4
  br label %141

66:                                               ; preds = %52
  %67 = load ptr, ptr %8, align 8
  %68 = load i64, ptr %11, align 8
  %69 = getelementptr inbounds i8, ptr %67, i64 %68
  store ptr %69, ptr %9, align 8
  %70 = load ptr, ptr %9, align 8
  %71 = load ptr, ptr %8, align 8
  %72 = getelementptr inbounds ptr, ptr %71, i64 0
  store ptr %70, ptr %72, align 8
  %73 = load ptr, ptr %6, align 8
  %74 = call i64 @strlen(ptr noundef %73) #7
  %75 = add i64 %74, 1
  %76 = trunc i64 %75 to i32
  store i32 %76, ptr %12, align 4
  %77 = load ptr, ptr %9, align 8
  %78 = load ptr, ptr %6, align 8
  %79 = load i64, ptr %10, align 8
  %80 = call i64 @strlcpy(ptr noundef %77, ptr noundef %78, i64 noundef %79)
  %81 = load i32, ptr %12, align 4
  %82 = load ptr, ptr %9, align 8
  %83 = sext i32 %81 to i64
  %84 = getelementptr inbounds i8, ptr %82, i64 %83
  store ptr %84, ptr %9, align 8
  %85 = load i32, ptr %12, align 4
  %86 = sext i32 %85 to i64
  %87 = load i64, ptr %10, align 8
  %88 = sub i64 %87, %86
  store i64 %88, ptr %10, align 8
  store i32 0, ptr %14, align 4
  br label %89

89:                                               ; preds = %124, %66
  %90 = load i32, ptr %14, align 4
  %91 = load i32, ptr %13, align 4
  %92 = icmp slt i32 %90, %91
  br i1 %92, label %93, label %127

93:                                               ; preds = %89
  %94 = load ptr, ptr %9, align 8
  %95 = load ptr, ptr %8, align 8
  %96 = load i32, ptr %14, align 4
  %97 = add nsw i32 %96, 1
  %98 = sext i32 %97 to i64
  %99 = getelementptr inbounds ptr, ptr %95, i64 %98
  store ptr %94, ptr %99, align 8
  %100 = load ptr, ptr %7, align 8
  %101 = load i32, ptr %14, align 4
  %102 = sext i32 %101 to i64
  %103 = getelementptr inbounds ptr, ptr %100, i64 %102
  %104 = load ptr, ptr %103, align 8
  %105 = call i64 @strlen(ptr noundef %104) #7
  %106 = add i64 %105, 1
  %107 = trunc i64 %106 to i32
  store i32 %107, ptr %12, align 4
  %108 = load ptr, ptr %9, align 8
  %109 = load ptr, ptr %7, align 8
  %110 = load i32, ptr %14, align 4
  %111 = sext i32 %110 to i64
  %112 = getelementptr inbounds ptr, ptr %109, i64 %111
  %113 = load ptr, ptr %112, align 8
  %114 = load i64, ptr %10, align 8
  %115 = call i64 @strlcpy(ptr noundef %108, ptr noundef %113, i64 noundef %114)
  %116 = load i32, ptr %12, align 4
  %117 = load ptr, ptr %9, align 8
  %118 = sext i32 %116 to i64
  %119 = getelementptr inbounds i8, ptr %117, i64 %118
  store ptr %119, ptr %9, align 8
  %120 = load i32, ptr %12, align 4
  %121 = sext i32 %120 to i64
  %122 = load i64, ptr %10, align 8
  %123 = sub i64 %122, %121
  store i64 %123, ptr %10, align 8
  br label %124

124:                                              ; preds = %93
  %125 = load i32, ptr %14, align 4
  %126 = add nsw i32 %125, 1
  store i32 %126, ptr %14, align 4
  br label %89, !llvm.loop !9

127:                                              ; preds = %89
  %128 = load ptr, ptr %8, align 8
  %129 = load i32, ptr %13, align 4
  %130 = add nsw i32 %129, 1
  %131 = sext i32 %130 to i64
  %132 = getelementptr inbounds ptr, ptr %128, i64 %131
  store ptr null, ptr %132, align 8
  %133 = load ptr, ptr %8, align 8
  %134 = load ptr, ptr %5, align 8
  %135 = getelementptr inbounds %struct.task_tcb_s, ptr %134, i32 0, i32 0
  %136 = getelementptr inbounds %struct.tcb_s, ptr %135, i32 0, i32 2
  %137 = load ptr, ptr %136, align 16
  %138 = getelementptr inbounds %struct.task_group_s, ptr %137, i32 0, i32 13
  %139 = load ptr, ptr %138, align 8
  %140 = getelementptr inbounds %struct.task_info_s, ptr %139, i32 0, i32 1
  store ptr %133, ptr %140, align 8
  store i32 0, ptr %4, align 4
  br label %141

141:                                              ; preds = %127, %65, %49, %44
  %142 = load i32, ptr %4, align 4
  ret i32 %142
}

; Function Attrs: nounwind uwtable
define internal void @nxtask_setup_name(ptr noundef %0, ptr noundef %1) #0 {
  %3 = alloca ptr, align 8
  %4 = alloca ptr, align 8
  %5 = alloca ptr, align 8
  %6 = alloca i32, align 4
  %7 = alloca i8, align 1
  store ptr %0, ptr %3, align 8
  store ptr %1, ptr %4, align 8
  %8 = load ptr, ptr %3, align 8
  %9 = getelementptr inbounds %struct.task_tcb_s, ptr %8, i32 0, i32 0
  %10 = getelementptr inbounds %struct.tcb_s, ptr %9, i32 0, i32 27
  %11 = getelementptr inbounds [32 x i8], ptr %10, i64 0, i64 0
  store ptr %11, ptr %5, align 8
  store i32 0, ptr %6, align 4
  br label %12

12:                                               ; preds = %37, %2
  %13 = load i32, ptr %6, align 4
  %14 = icmp slt i32 %13, 31
  br i1 %14, label %15, label %40

15:                                               ; preds = %12
  %16 = load ptr, ptr %4, align 8
  %17 = getelementptr inbounds i8, ptr %16, i32 1
  store ptr %17, ptr %4, align 8
  %18 = load i8, ptr %16, align 1
  store i8 %18, ptr %7, align 1
  %19 = load i8, ptr %7, align 1
  %20 = sext i8 %19 to i32
  %21 = icmp eq i32 %20, 0
  br i1 %21, label %22, label %23

22:                                               ; preds = %15
  br label %40

23:                                               ; preds = %15
  %24 = load i8, ptr %7, align 1
  %25 = sext i8 %24 to i32
  %26 = call i32 @isspace(i32 noundef %25) #6
  %27 = icmp ne i32 %26, 0
  br i1 %27, label %28, label %29

28:                                               ; preds = %23
  br label %32

29:                                               ; preds = %23
  %30 = load i8, ptr %7, align 1
  %31 = sext i8 %30 to i32
  br label %32

32:                                               ; preds = %29, %28
  %33 = phi i32 [ 95, %28 ], [ %31, %29 ]
  %34 = trunc i32 %33 to i8
  %35 = load ptr, ptr %5, align 8
  %36 = getelementptr inbounds i8, ptr %35, i32 1
  store ptr %36, ptr %5, align 8
  store i8 %34, ptr %35, align 1
  br label %37

37:                                               ; preds = %32
  %38 = load i32, ptr %6, align 4
  %39 = add nsw i32 %38, 1
  store i32 %39, ptr %6, align 4
  br label %12, !llvm.loop !6

40:                                               ; preds = %22, %12
  %41 = load ptr, ptr %5, align 8
  store i8 0, ptr %41, align 1
  ret void
}

; Function Attrs: nounwind uwtable
define i32 @nxtask_setup_arguments(ptr noundef %0, ptr noundef %1, ptr noundef %2) #0 {
  %4 = alloca ptr, align 8
  %5 = alloca ptr, align 8
  %6 = alloca ptr, align 8
  store ptr %0, ptr %4, align 8
  store ptr %1, ptr %5, align 8
  store ptr %2, ptr %6, align 8
  %7 = load ptr, ptr %5, align 8
  %8 = icmp ne ptr %7, null
  br i1 %8, label %10, label %9

9:                                                ; preds = %3
  store ptr @g_noname, ptr %5, align 8
  br label %10

10:                                               ; preds = %9, %3
  %11 = load ptr, ptr %4, align 8
  %12 = load ptr, ptr %5, align 8
  call void @nxtask_setup_name(ptr noundef %11, ptr noundef %12)
  %13 = load ptr, ptr %4, align 8
  %14 = load ptr, ptr %5, align 8
  %15 = load ptr, ptr %6, align 8
  %16 = call i32 @nxtask_setup_stackargs(ptr noundef %13, ptr noundef %14, ptr noundef %15)
  ret i32 %16
}